target datalayout = "e-m:e-p270:32:32-p271:32:32-p272:64:64-i64:64-i128:128-f80:128-n8:16:32:64-S128"
target triple = "x86_64-pc-linux-gnu"

%struct.anon.0 = type { i8, i8 }
%struct.rb_random_mt_t = type { %struct.rb_random_struct, %struct.MT }
%struct.rb_random_struct = type { i64 }
%struct.MT = type { [624 x i32], ptr, i32 }

@default_rand_key = internal global ptr null, align 8
@random_mt_if = internal constant { i64, %struct.anon.0, i16, [4 x i8], ptr, ptr, ptr, ptr, ptr } { i64 128, %struct.anon.0 { i8 1, i8 0 }, i16 0, [4 x i8] zeroinitializer, ptr @rand_mt_init, ptr @rand_mt_init_int32, ptr @rand_mt_get_int32, ptr @rand_mt_get_bytes, ptr null }, align 8

; Function Attrs: nounwind sspstrong uwtable
define internal ptr @rand_mt_start(ptr noundef %0) #0 {
  %2 = alloca ptr, align 8
  store ptr %0, ptr %2, align 8, !tbaa !20
  %3 = load ptr, ptr %2, align 8, !tbaa !20
  %4 = getelementptr inbounds nuw %struct.rb_random_mt_t, ptr %3, i32 0, i32 1
  %5 = getelementptr inbounds nuw %struct.MT, ptr %4, i32 0, i32 1
  %6 = load ptr, ptr %5, align 8, !tbaa !70
  %7 = icmp ne ptr %6, null
  br i1 %7, label %16, label %8

8:                                                ; preds = %1
  %9 = load ptr, ptr %2, align 8, !tbaa !20
  %10 = getelementptr inbounds nuw %struct.rb_random_mt_t, ptr %9, i32 0, i32 0
  %11 = call i64 @random_seed(i64 noundef 36)
  %12 = call i64 @rand_init(ptr noundef @random_mt_if, ptr noundef %10, i64 noundef %11)
  %13 = load ptr, ptr %2, align 8, !tbaa !20
  %14 = getelementptr inbounds nuw %struct.rb_random_mt_t, ptr %13, i32 0, i32 0
  %15 = getelementptr inbounds nuw %struct.rb_random_struct, ptr %14, i32 0, i32 0
  store i64 %12, ptr %15, align 8, !tbaa !72
  br label %16

16:                                               ; preds = %8, %1
  %17 = load ptr, ptr %2, align 8, !tbaa !20
  ret ptr %17
}

; Function Attrs: nounwind sspstrong uwtable
define internal ptr @default_rand() #0 {
  %1 = alloca ptr, align 8
  call void @llvm.lifetime.start.p0(i64 8, ptr %1) #24
  %2 = load ptr, ptr @default_rand_key, align 8, !tbaa !7
  %3 = call ptr @rb_ractor_local_storage_ptr(ptr noundef %2)
  store ptr %3, ptr %1, align 8, !tbaa !20
  %4 = icmp eq ptr %3, null
  br i1 %4, label %5, label %9

5:                                                ; preds = %0
  %6 = call noalias nonnull ptr @ruby_xcalloc(i64 noundef 1, i64 noundef 2520) #29
  store ptr %6, ptr %1, align 8, !tbaa !20
  %7 = load ptr, ptr @default_rand_key, align 8, !tbaa !7
  %8 = load ptr, ptr %1, align 8, !tbaa !20
  call void @rb_ractor_local_storage_ptr_set(ptr noundef %7, ptr noundef %8)
  br label %9

9:                                                ; preds = %5, %0
  %10 = load ptr, ptr %1, align 8, !tbaa !20
  call void @llvm.lifetime.end.p0(i64 8, ptr %1) #24
  ret ptr %10
}

; Function Attrs: nounwind sspstrong uwtable
define internal ptr @default_mt() #0 {
  %1 = call ptr @default_rand()
  %2 = call ptr @rand_mt_start(ptr noundef %1)
  ret ptr %2
}

; Function Attrs: nounwind sspstrong uwtable
define dso_local i32 @rb_genrand_int32() #0 {
  %1 = alloca ptr, align 8
  call void @llvm.lifetime.start.p0(i64 8, ptr %1) #24
  %2 = call ptr @default_mt()
  %3 = getelementptr inbounds nuw %struct.rb_random_mt_t, ptr %2, i32 0, i32 1
  store ptr %3, ptr %1, align 8, !tbaa !12
  %4 = load ptr, ptr %1, align 8, !tbaa !12
  %5 = call i32 @genrand_int32(ptr noundef %4)
  call void @llvm.lifetime.end.p0(i64 8, ptr %1) #24
  ret i32 %5
}