; Function Attrs: nounwind sspstrong uwtable
define dso_local i32 @rb_genrand_int32() local_unnamed_addr #0 {
  %1 = load ptr, ptr @default_rand_key, align 8, !tbaa !7
  %2 = tail call ptr @rb_ractor_local_storage_ptr(ptr noundef %1) #23
  %3 = icmp eq ptr %2, null
  br i1 %3, label %4, label %default_rand.exit.i

4:                                                ; preds = %0
  %5 = tail call noalias nonnull dereferenceable(2520) ptr @ruby_xcalloc(i64 noundef 1, i64 noundef 2520) #24
  %6 = load ptr, ptr @default_rand_key, align 8, !tbaa !7
  tail call void @rb_ractor_local_storage_ptr_set(ptr noundef %6, ptr noundef nonnull %5) #23
  br label %default_rand.exit.i

default_rand.exit.i:                              ; preds = %4, %0
  %.0.i.i = phi ptr [ %5, %4 ], [ %2, %0 ]
  %7 = getelementptr inbounds nuw i8, ptr %.0.i.i, i64 2504
  %8 = load ptr, ptr %7, align 8, !tbaa !12
  %.not.i.i = icmp eq ptr %8, null
  br i1 %.not.i.i, label %9, label %default_mt.exit

9:                                                ; preds = %default_rand.exit.i
  %10 = tail call i64 @random_seed(i64 poison)
  %11 = tail call fastcc i64 @rand_init(ptr noundef nonnull @random_mt_if, ptr noundef nonnull %.0.i.i, i64 noundef %10)
  store i64 %10, ptr %.0.i.i, align 8, !tbaa !19
  br label %default_mt.exit

default_mt.exit:                                  ; preds = %default_rand.exit.i, %9
  %12 = getelementptr inbounds nuw i8, ptr %.0.i.i, i64 8
  %13 = tail call fastcc i32 @genrand_int32(ptr noundef nonnull %12)
  ret i32 %13
}